target datalayout = "e-m:e-p270:32:32-p271:32:32-p272:64:64-i64:64-i128:128-f80:128-n8:16:32:64-S128"
target triple = "x86_64-pc-linux-gnu"

; Function Attrs: inlinehint nounwind uwtable
define internal i32 @ffurl_read(ptr noundef %0, ptr noundef %1, i32 noundef %2) #6 {
  %4 = alloca ptr, align 8
  %5 = alloca ptr, align 8
  %6 = alloca i32, align 4
  store ptr %0, ptr %4, align 8, !tbaa !32
  store ptr %1, ptr %5, align 8, !tbaa !12
  store i32 %2, ptr %6, align 4, !tbaa !10
  %7 = load ptr, ptr %4, align 8, !tbaa !32
  %8 = load ptr, ptr %5, align 8, !tbaa !12
  %9 = load i32, ptr %6, align 4, !tbaa !10
  %10 = call i32 @ffurl_read2(ptr noundef %7, ptr noundef %8, i32 noundef %9)
  ret i32 %10
}

; Function Attrs: nounwind uwtable
define i32 @ff_rtmp_packet_read(ptr noundef %0, ptr noundef %1, i32 noundef %2, ptr noundef %3, ptr noundef %4) #0 {
  %6 = alloca i32, align 4
  %7 = alloca ptr, align 8
  %8 = alloca ptr, align 8
  %9 = alloca i32, align 4
  %10 = alloca ptr, align 8
  %11 = alloca ptr, align 8
  %12 = alloca i8, align 1
  %13 = alloca i32, align 4
  store ptr %0, ptr %7, align 8, !tbaa !32
  store ptr %1, ptr %8, align 8, !tbaa !30
  store i32 %2, ptr %9, align 4, !tbaa !10
  store ptr %3, ptr %10, align 8, !tbaa !28
  store ptr %4, ptr %11, align 8, !tbaa !26
  call void @llvm.lifetime.start.p0(i64 1, ptr %12) #13
  %14 = load ptr, ptr %7, align 8, !tbaa !32
  %15 = call i32 @ffurl_read(ptr noundef %14, ptr noundef %12, i32 noundef 1)
  %16 = icmp ne i32 %15, 1
  br i1 %16, label %17, label %18

17:                                               ; preds = %5
  store i32 -5, ptr %6, align 4
  store i32 1, ptr %13, align 4
  br label %26

18:                                               ; preds = %5
  %19 = load ptr, ptr %7, align 8, !tbaa !32
  %20 = load ptr, ptr %8, align 8, !tbaa !30
  %21 = load i32, ptr %9, align 4, !tbaa !10
  %22 = load ptr, ptr %10, align 8, !tbaa !28
  %23 = load ptr, ptr %11, align 8, !tbaa !26
  %24 = load i8, ptr %12, align 1, !tbaa !14
  %25 = call i32 @ff_rtmp_packet_read_internal(ptr noundef %19, ptr noundef %20, i32 noundef %21, ptr noundef %22, ptr noundef %23, i8 noundef zeroext %24)
  store i32 %25, ptr %6, align 4
  store i32 1, ptr %13, align 4
  br label %26

26:                                               ; preds = %18, %17
  call void @llvm.lifetime.end.p0(i64 1, ptr %12) #13
  %27 = load i32, ptr %6, align 4
  ret i32 %27
}