; Function Attrs: nounwind uwtable
define i32 @ff_rtmp_packet_read(ptr noundef %0, ptr noundef %1, i32 noundef %2, ptr noundef captures(none) %3, ptr noundef captures(none) %4) local_unnamed_addr #5 {
  %6 = alloca i8, align 1
  call void @llvm.lifetime.start.p0(i64 1, ptr nonnull %6) #16
  %7 = call i32 @ffurl_read2(ptr noundef %0, ptr noundef nonnull %6, i32 noundef 1) #16
  %.not = icmp eq i32 %7, 1
  br i1 %.not, label %8, label %11

8:                                                ; preds = %5
  %9 = load i8, ptr %6, align 1, !tbaa !9
  %10 = call i32 @ff_rtmp_packet_read_internal(ptr noundef %0, ptr noundef %1, i32 noundef %2, ptr noundef %3, ptr noundef %4, i8 noundef zeroext %9)
  br label %11

11:                                               ; preds = %5, %8
  %.0 = phi i32 [ %10, %8 ], [ -5, %5 ]
  call void @llvm.lifetime.end.p0(i64 1, ptr nonnull %6) #16
  ret i32 %.0
}